target datalayout = "e-m:e-p270:32:32-p271:32:32-p272:64:64-i64:64-i128:128-f80:128-n8:16:32:64-S128"
target triple = "x86_64-pc-linux-gnu"

%"class.cv::FileNodeIterator" = type { ptr, i64, i64, i64, i64, i64 }

; Function Attrs: mustprogress nounwind uwtable
define noundef nonnull align 8 dereferenceable(48) ptr @_ZN2cv16FileNodeIteratoraSERKS0_(ptr noundef nonnull align 8 dereferenceable(48) %0, ptr noundef nonnull align 8 dereferenceable(48) %1) #8 align 2 {
  %3 = alloca ptr, align 8
  %4 = alloca ptr, align 8
  store ptr %0, ptr %3, align 8, !tbaa !216
  store ptr %1, ptr %4, align 8, !tbaa !216
  %5 = load ptr, ptr %3, align 8
  %6 = load ptr, ptr %4, align 8, !tbaa !216
  %7 = getelementptr inbounds nuw %"class.cv::FileNodeIterator", ptr %6, i32 0, i32 0
  %8 = load ptr, ptr %7, align 8, !tbaa !221
  %9 = getelementptr inbounds nuw %"class.cv::FileNodeIterator", ptr %5, i32 0, i32 0
  store ptr %8, ptr %9, align 8, !tbaa !221
  %10 = load ptr, ptr %4, align 8, !tbaa !216
  %11 = getelementptr inbounds nuw %"class.cv::FileNodeIterator", ptr %10, i32 0, i32 1
  %12 = load i64, ptr %11, align 8, !tbaa !222
  %13 = getelementptr inbounds nuw %"class.cv::FileNodeIterator", ptr %5, i32 0, i32 1
  store i64 %12, ptr %13, align 8, !tbaa !222
  %14 = load ptr, ptr %4, align 8, !tbaa !216
  %15 = getelementptr inbounds nuw %"class.cv::FileNodeIterator", ptr %14, i32 0, i32 2
  %16 = load i64, ptr %15, align 8, !tbaa !223
  %17 = getelementptr inbounds nuw %"class.cv::FileNodeIterator", ptr %5, i32 0, i32 2
  store i64 %16, ptr %17, align 8, !tbaa !223
  %18 = load ptr, ptr %4, align 8, !tbaa !216
  %19 = getelementptr inbounds nuw %"class.cv::FileNodeIterator", ptr %18, i32 0, i32 3
  %20 = load i64, ptr %19, align 8, !tbaa !224
  %21 = getelementptr inbounds nuw %"class.cv::FileNodeIterator", ptr %5, i32 0, i32 3
  store i64 %20, ptr %21, align 8, !tbaa !224
  %22 = load ptr, ptr %4, align 8, !tbaa !216
  %23 = getelementptr inbounds nuw %"class.cv::FileNodeIterator", ptr %22, i32 0, i32 4
  %24 = load i64, ptr %23, align 8, !tbaa !220
  %25 = getelementptr inbounds nuw %"class.cv::FileNodeIterator", ptr %5, i32 0, i32 4
  store i64 %24, ptr %25, align 8, !tbaa !220
  %26 = load ptr, ptr %4, align 8, !tbaa !216
  %27 = getelementptr inbounds nuw %"class.cv::FileNodeIterator", ptr %26, i32 0, i32 5
  %28 = load i64, ptr %27, align 8, !tbaa !218
  %29 = getelementptr inbounds nuw %"class.cv::FileNodeIterator", ptr %5, i32 0, i32 5
  store i64 %28, ptr %29, align 8, !tbaa !218
  ret ptr %5
}