; Function Attrs: mustprogress nofree norecurse nosync nounwind willreturn memory(argmem: readwrite) uwtable
define noundef nonnull align 8 dereferenceable(48) ptr @_ZN2cv16FileNodeIteratoraSERKS0_(ptr noundef nonnull returned writeonly align 8 dereferenceable(48) initializes((0, 48)) %0, ptr noundef nonnull readonly align 8 captures(none) dereferenceable(48) %1) local_unnamed_addr #30 align 2 {
  %3 = load ptr, ptr %1, align 8, !tbaa !281
  store ptr %3, ptr %0, align 8, !tbaa !281
  %4 = getelementptr inbounds nuw i8, ptr %1, i64 8
  %5 = load i64, ptr %4, align 8, !tbaa !261
  %6 = getelementptr inbounds nuw i8, ptr %0, i64 8
  store i64 %5, ptr %6, align 8, !tbaa !261
  %7 = getelementptr inbounds nuw i8, ptr %1, i64 16
  %8 = load i64, ptr %7, align 8, !tbaa !262
  %9 = getelementptr inbounds nuw i8, ptr %0, i64 16
  store i64 %8, ptr %9, align 8, !tbaa !262
  %10 = getelementptr inbounds nuw i8, ptr %1, i64 24
  %11 = load i64, ptr %10, align 8, !tbaa !280
  %12 = getelementptr inbounds nuw i8, ptr %0, i64 24
  store i64 %11, ptr %12, align 8, !tbaa !280
  %13 = getelementptr inbounds nuw i8, ptr %1, i64 32
  %14 = load i64, ptr %13, align 8, !tbaa !260
  %15 = getelementptr inbounds nuw i8, ptr %0, i64 32
  store i64 %14, ptr %15, align 8, !tbaa !260
  %16 = getelementptr inbounds nuw i8, ptr %1, i64 40
  %17 = load i64, ptr %16, align 8, !tbaa !255
  %18 = getelementptr inbounds nuw i8, ptr %0, i64 40
  store i64 %17, ptr %18, align 8, !tbaa !255
  ret ptr %0
}